; Function Attrs: mustprogress uwtable
define void @_ZN6icu_7519BreakTransliteratorC2ERKS0_(ptr noundef nonnull align 8 dereferenceable(168) %this, ptr noundef nonnull align 8 dereferenceable(168) %o) unnamed_addr #1 align 2 personality ptr @__gxx_personality_v0 {
invoke.cont3:
  tail call void @_ZN6icu_7514TransliteratorC2ERKS0_(ptr noundef nonnull align 8 dereferenceable(84) %this, ptr noundef nonnull align 8 dereferenceable(84) %o)
  store ptr getelementptr inbounds ({ [21 x ptr] }, ptr @_ZTVN6icu_7519BreakTransliteratorE, i64 0, i32 0, i64 2), ptr %this, align 8
  %cachedBI = getelementptr inbounds i8, ptr %this, i64 88
  %fInsertion = getelementptr inbounds i8, ptr %this, i64 104
  %fInsertion4 = getelementptr inbounds i8, ptr %o, i64 104
  tail call void @llvm.memset.p0.i64(ptr noundef nonnull align 8 dereferenceable(16) %cachedBI, i8 0, i64 16, i1 false)
  invoke void @_ZN6icu_7513UnicodeStringC1ERKS0_(ptr noundef nonnull align 8 dereferenceable(64) %fInsertion, ptr noundef nonnull align 8 dereferenceable(64) %fInsertion4)
          to label %invoke.cont6 unwind label %lpad5

invoke.cont6:                                     ; preds = %invoke.cont3
  ret void

lpad5:                                            ; preds = %invoke.cont3
  %0 = landingpad { ptr, i32 }
          cleanup
  %cachedBoundaries = getelementptr inbounds i8, ptr %this, i64 96
  %1 = load ptr, ptr %cachedBoundaries, align 8
  %isnull.i = icmp eq ptr %1, null
  br i1 %isnull.i, label %ehcleanup, label %delete.notnull.i

delete.notnull.i:                                 ; preds = %lpad5
  %vtable.i = load ptr, ptr %1, align 8
  %vfn.i = getelementptr inbounds i8, ptr %vtable.i, i64 8
  %2 = load ptr, ptr %vfn.i, align 8
  tail call void %2(ptr noundef nonnull align 8 dereferenceable(32) %1) #12
  br label %ehcleanup

ehcleanup:                                        ; preds = %delete.notnull.i, %lpad5
  %3 = load ptr, ptr %cachedBI, align 8
  %isnull.i4 = icmp eq ptr %3, null
  br i1 %isnull.i4, label %ehcleanup7, label %delete.notnull.i5

delete.notnull.i5:                                ; preds = %ehcleanup
  %vtable.i6 = load ptr, ptr %3, align 8
  %vfn.i7 = getelementptr inbounds i8, ptr %vtable.i6, i64 8
  %4 = load ptr, ptr %vfn.i7, align 8
  tail call void %4(ptr noundef nonnull align 8 dereferenceable(479) %3) #12
  br label %ehcleanup7

ehcleanup7:                                       ; preds = %delete.notnull.i5, %ehcleanup
  tail call void @_ZN6icu_7514TransliteratorD2Ev(ptr noundef nonnull align 8 dereferenceable(84) %this) #12
  resume { ptr, i32 } %0
}